target datalayout = "e-m:e-p270:32:32-p271:32:32-p272:64:64-i64:64-i128:128-f80:128-n8:16:32:64-S128"
target triple = "x86_64-pc-linux-gnu"

%class.JVMFlag = type { ptr, ptr, i32, i32 }

@.str.34 = private unnamed_addr constant [2 x i8] c" \00", align 1
@_ZN7JVMFlag8numFlagsE = hidden global i64 1224, align 8

; Function Attrs: mustprogress nounwind uwtable
define linkonce_odr hidden noundef i32 @_ZNK7JVMFlag10get_originEv(ptr noundef nonnull align 8 dereferenceable(24) %0) #1 comdat align 2 {
  %2 = alloca ptr, align 8
  store ptr %0, ptr %2, align 8
  %3 = load ptr, ptr %2, align 8
  %4 = getelementptr inbounds %class.JVMFlag, ptr %3, i32 0, i32 2
  %5 = load i32, ptr %4, align 8
  %6 = and i32 %5, 15
  ret i32 %6
}

; Function Attrs: mustprogress nounwind uwtable
define hidden void @_ZN7JVMFlag13printSetFlagsEP12outputStream(ptr noundef %0) #1 align 2 {
  %2 = alloca ptr, align 8
  %3 = alloca i64, align 8
  %4 = alloca ptr, align 8
  %5 = alloca i64, align 8
  %6 = alloca i64, align 8
  store ptr %0, ptr %2, align 8
  %7 = load i64, ptr @_ZN7JVMFlag8numFlagsE, align 8
  %8 = sub i64 %7, 1
  store i64 %8, ptr %3, align 8
  %9 = load i64, ptr %3, align 8
  %10 = mul i64 %9, 8
  %11 = call noundef ptr @_Z12AllocateHeapm8MEMFLAGSN17AllocFailStrategy13AllocFailEnumE(i64 noundef %10, i8 noundef zeroext 19, i32 noundef 0)
  store ptr %11, ptr %4, align 8
  store i64 0, ptr %5, align 8
  br label %12

12:                                               ; preds = %22, %1
  %13 = load i64, ptr %5, align 8
  %14 = load i64, ptr %3, align 8
  %15 = icmp ult i64 %13, %14
  br i1 %15, label %16, label %25

16:                                               ; preds = %12
  %17 = load i64, ptr %5, align 8
  %18 = getelementptr inbounds [1224 x %class.JVMFlag], ptr @_ZL9flagTable, i64 0, i64 %17
  %19 = load ptr, ptr %4, align 8
  %20 = load i64, ptr %5, align 8
  %21 = getelementptr inbounds ptr, ptr %19, i64 %20
  store ptr %18, ptr %21, align 8
  br label %22

22:                                               ; preds = %16
  %23 = load i64, ptr %5, align 8
  %24 = add i64 %23, 1
  store i64 %24, ptr %5, align 8
  br label %12, !llvm.loop !11

25:                                               ; preds = %12
  %26 = load ptr, ptr %4, align 8
  %27 = load i64, ptr %3, align 8
  call void @qsort(ptr noundef %26, i64 noundef %27, i64 noundef 8, ptr noundef @_ZL13compare_flagsPKvS0_)
  store i64 0, ptr %6, align 8
  br label %28

28:                                               ; preds = %47, %25
  %29 = load i64, ptr %6, align 8
  %30 = load i64, ptr %3, align 8
  %31 = icmp ult i64 %29, %30
  br i1 %31, label %32, label %50

32:                                               ; preds = %28
  %33 = load ptr, ptr %4, align 8
  %34 = load i64, ptr %6, align 8
  %35 = getelementptr inbounds ptr, ptr %33, i64 %34
  %36 = load ptr, ptr %35, align 8
  %37 = call noundef i32 @_ZNK7JVMFlag10get_originEv(ptr noundef nonnull align 8 dereferenceable(24) %36)
  %38 = icmp ne i32 %37, 0
  br i1 %38, label %39, label %46

39:                                               ; preds = %32
  %40 = load ptr, ptr %4, align 8
  %41 = load i64, ptr %6, align 8
  %42 = getelementptr inbounds ptr, ptr %40, i64 %41
  %43 = load ptr, ptr %42, align 8
  %44 = load ptr, ptr %2, align 8
  call void @_ZNK7JVMFlag13print_as_flagEP12outputStream(ptr noundef nonnull align 8 dereferenceable(24) %43, ptr noundef %44)
  %45 = load ptr, ptr %2, align 8
  call void (ptr, ptr, ...) @_ZN12outputStream5printEPKcz(ptr noundef nonnull align 8 dereferenceable(56) %45, ptr noundef @.str.34)
  br label %46

46:                                               ; preds = %39, %32
  br label %47

47:                                               ; preds = %46
  %48 = load i64, ptr %6, align 8
  %49 = add i64 %48, 1
  store i64 %49, ptr %6, align 8
  br label %28, !llvm.loop !12

50:                                               ; preds = %28
  %51 = load ptr, ptr %2, align 8
  call void @_ZN12outputStream2crEv(ptr noundef nonnull align 8 dereferenceable(56) %51)
  %52 = load ptr, ptr %4, align 8
  call void @_Z8FreeHeapPv(ptr noundef %52)
  ret void
}