; Function Attrs: mustprogress nounwind uwtable
define hidden void @_ZN7JVMFlag13printSetFlagsEP12outputStream(ptr noundef %0) local_unnamed_addr #5 align 2 {
  %2 = load i64, ptr @_ZN7JVMFlag8numFlagsE, align 8
  %3 = add i64 %2, -1
  %4 = shl i64 %3, 3
  %5 = tail call noundef ptr @_Z12AllocateHeapm8MEMFLAGSN17AllocFailStrategy13AllocFailEnumE(i64 noundef %4, i8 noundef zeroext 19, i32 noundef 0) #13
  %.not26 = icmp eq i64 %3, 0
  br i1 %.not26, label %._crit_edge.thread, label %.lr.ph

._crit_edge.thread:                               ; preds = %1
  tail call void @qsort(ptr noundef %5, i64 noundef %3, i64 noundef 8, ptr noundef nonnull @_ZL13compare_flagsPKvS0_) #13
  br label %._crit_edge25

.lr.ph:                                           ; preds = %1, %.lr.ph
  %.01921 = phi i64 [ %8, %.lr.ph ], [ 0, %1 ]
  %6 = getelementptr inbounds [1224 x %class.JVMFlag], ptr @_ZL9flagTable, i64 0, i64 %.01921
  %7 = getelementptr inbounds ptr, ptr %5, i64 %.01921
  store ptr %6, ptr %7, align 8
  %8 = add nuw i64 %.01921, 1
  %exitcond.not = icmp eq i64 %8, %3
  br i1 %exitcond.not, label %.lr.ph24.preheader, label %.lr.ph, !llvm.loop !11

.lr.ph24.preheader:                               ; preds = %.lr.ph
  tail call void @qsort(ptr noundef nonnull %5, i64 noundef %3, i64 noundef 8, ptr noundef nonnull @_ZL13compare_flagsPKvS0_) #13
  br label %.lr.ph24

.lr.ph24:                                         ; preds = %.lr.ph24.preheader, %15
  %.022 = phi i64 [ %16, %15 ], [ 0, %.lr.ph24.preheader ]
  %9 = getelementptr inbounds ptr, ptr %5, i64 %.022
  %10 = load ptr, ptr %9, align 8
  %11 = getelementptr inbounds i8, ptr %10, i64 16
  %12 = load i32, ptr %11, align 8
  %13 = and i32 %12, 15
  %.not = icmp eq i32 %13, 0
  br i1 %.not, label %15, label %14

14:                                               ; preds = %.lr.ph24
  tail call void @_ZNK7JVMFlag13print_as_flagEP12outputStream(ptr noundef nonnull align 8 dereferenceable(24) %10, ptr noundef %0)
  tail call void (ptr, ptr, ...) @_ZN12outputStream5printEPKcz(ptr noundef nonnull align 8 dereferenceable(56) %0, ptr noundef nonnull @.str.34) #13
  br label %15

15:                                               ; preds = %.lr.ph24, %14
  %16 = add nuw i64 %.022, 1
  %exitcond28.not = icmp eq i64 %16, %3
  br i1 %exitcond28.not, label %._crit_edge25, label %.lr.ph24, !llvm.loop !12

._crit_edge25:                                    ; preds = %15, %._crit_edge.thread
  tail call void @_ZN12outputStream2crEv(ptr noundef nonnull align 8 dereferenceable(56) %0) #13
  tail call void @_Z8FreeHeapPv(ptr noundef %5) #13
  ret void
}